	.arch armv8-a
	.file	"upper.c"
// GNU C17 (Debian 9.2.1-25) version 9.2.1 20200123 (aarch64-linux-gnu)
//	compiled by GNU C version 9.2.1 20200123, GMP version 6.1.2, MPFR version 4.0.2, MPC version 1.1.0, isl version isl-0.22-GMP

// GGC heuristics: --param ggc-min-expand=100 --param ggc-min-heapsize=131072
// options passed:  -imultiarch aarch64-linux-gnu upper.c -mlittle-endian
// -mabi=lp64 -auxbase-strip upper.s -g -O3 -fverbose-asm
// -fasynchronous-unwind-tables
// options enabled:  -fPIC -fPIE -faggressive-loop-optimizations
// -falign-functions -falign-jumps -falign-labels -falign-loops
// -fassume-phsa -fasynchronous-unwind-tables -fauto-inc-dec
// -fbranch-count-reg -fcaller-saves -fcode-hoisting
// -fcombine-stack-adjustments -fcommon -fcompare-elim -fcprop-registers
// -fcrossjumping -fcse-follow-jumps -fdefer-pop
// -fdelete-null-pointer-checks -fdevirtualize -fdevirtualize-speculatively
// -fdwarf2-cfi-asm -fearly-inlining -feliminate-unused-debug-types
// -fexpensive-optimizations -fforward-propagate -ffp-int-builtin-inexact
// -ffunction-cse -fgcse -fgcse-after-reload -fgcse-lm -fgnu-runtime
// -fgnu-unique -fguess-branch-probability -fhoist-adjacent-loads -fident
// -fif-conversion -fif-conversion2 -findirect-inlining -finline
// -finline-atomics -finline-functions -finline-functions-called-once
// -finline-small-functions -fipa-bit-cp -fipa-cp -fipa-cp-clone -fipa-icf
// -fipa-icf-functions -fipa-icf-variables -fipa-profile -fipa-pure-const
// -fipa-ra -fipa-reference -fipa-reference-addressable -fipa-sra
// -fipa-stack-alignment -fipa-vrp -fira-hoist-pressure
// -fira-share-save-slots -fira-share-spill-slots
// -fisolate-erroneous-paths-dereference -fivopts -fkeep-static-consts
// -fleading-underscore -flifetime-dse -floop-interchange
// -floop-unroll-and-jam -flra-remat -flto-odr-type-merging -fmath-errno
// -fmerge-constants -fmerge-debug-strings -fmove-loop-invariants
// -fomit-frame-pointer -foptimize-sibling-calls -foptimize-strlen
// -fpartial-inlining -fpeel-loops -fpeephole -fpeephole2 -fplt
// -fpredictive-commoning -fprefetch-loop-arrays -free -freg-struct-return
// -freorder-blocks -freorder-functions -frerun-cse-after-loop
// -fsched-critical-path-heuristic -fsched-dep-count-heuristic
// -fsched-group-heuristic -fsched-interblock -fsched-last-insn-heuristic
// -fsched-pressure -fsched-rank-heuristic -fsched-spec
// -fsched-spec-insn-heuristic -fsched-stalled-insns-dep -fschedule-fusion
// -fschedule-insns -fschedule-insns2 -fsection-anchors
// -fsemantic-interposition -fshow-column -fshrink-wrap
// -fshrink-wrap-separate -fsigned-zeros -fsplit-ivs-in-unroller
// -fsplit-loops -fsplit-paths -fsplit-wide-types -fssa-backprop
// -fssa-phiopt -fstdarg-opt -fstore-merging -fstrict-aliasing
// -fstrict-volatile-bitfields -fsync-libcalls -fthread-jumps
// -ftoplevel-reorder -ftrapping-math -ftree-bit-ccp
// -ftree-builtin-call-dce -ftree-ccp -ftree-ch -ftree-coalesce-vars
// -ftree-copy-prop -ftree-cselim -ftree-dce -ftree-dominator-opts
// -ftree-dse -ftree-forwprop -ftree-fre -ftree-loop-distribute-patterns
// -ftree-loop-distribution -ftree-loop-if-convert -ftree-loop-im
// -ftree-loop-ivcanon -ftree-loop-optimize -ftree-loop-vectorize
// -ftree-parallelize-loops= -ftree-partial-pre -ftree-phiprop -ftree-pre
// -ftree-pta -ftree-reassoc -ftree-scev-cprop -ftree-sink
// -ftree-slp-vectorize -ftree-slsr -ftree-sra -ftree-switch-conversion
// -ftree-tail-merge -ftree-ter -ftree-vrp -funit-at-a-time
// -funswitch-loops -funwind-tables -fvar-tracking
// -fvar-tracking-assignments -fverbose-asm -fversion-loops-for-strides
// -fzero-initialized-in-bss -mfix-cortex-a53-835769
// -mfix-cortex-a53-843419 -mglibc -mlittle-endian
// -momit-leaf-frame-pointer -mpc-relative-literal-loads

	.text
.Ltext0:
	.align	2
	.p2align 3,,7
	.global	mytoupper
	.type	mytoupper, %function
mytoupper:
.LVL0:
.LFB11:
	.file 1 "upper.c"
	.loc 1 4 1 view -0
	.cfi_startproc
	.loc 1 5 2 view .LVU1
	.loc 1 6 2 view .LVU2
// upper.c:4: {
	.loc 1 4 1 is_stmt 0 view .LVU3
	mov	x4, x1	// outstr, outstr
.LVL1:
.L2:
	.loc 1 8 2 is_stmt 1 view .LVU4
	.loc 1 10 3 view .LVU5
	.loc 1 13 4 view .LVU6
// upper.c:10: 		cur = *instr;
	.loc 1 10 7 is_stmt 0 view .LVU7
	ldrb	w2, [x0], 1	// cur, MEM[base: instr_4, offset: 0B]
.LVL2:
	.loc 1 11 3 is_stmt 1 view .LVU8
	.loc 1 15 3 view .LVU9
	.loc 1 15 3 view .LVU10
	add	x4, x4, 1	// outstr, outstr,
.LVL3:
// upper.c:11: 		if ((cur >= 'a') && (cur <='z')) 
	.loc 1 11 20 is_stmt 0 view .LVU11
	sub	w3, w2, #97	// tmp98, cur,
// upper.c:13: 			cur = cur - ('a'-'A');
	.loc 1 13 8 view .LVU12
	sub	w5, w2, #32	// tmp100, cur,
// upper.c:11: 		if ((cur >= 'a') && (cur <='z')) 
	.loc 1 11 6 view .LVU13
	and	w3, w3, 255	// tmp99, tmp98
	cmp	w3, 25	// tmp99,
	bhi	.L3		//,
.LVL4:
.L6:
// upper.c:15: 		*outstr++ = cur;
	.loc 1 15 13 view .LVU14
	strb	w5, [x4, -1]	// tmp100, MEM[base: _28, offset: -1B]
	.loc 1 16 3 is_stmt 1 view .LVU15
.LVL5:
	.loc 1 17 10 view .LVU16
	.loc 1 8 2 view .LVU17
	.loc 1 10 3 view .LVU18
	.loc 1 13 4 view .LVU19
	add	x4, x4, 1	// outstr, outstr,
.LVL6:
// upper.c:10: 		cur = *instr;
	.loc 1 10 7 is_stmt 0 view .LVU20
	ldrb	w2, [x0], 1	// cur, MEM[base: instr_4, offset: 0B]
.LVL7:
	.loc 1 11 3 is_stmt 1 view .LVU21
	.loc 1 15 3 view .LVU22
	.loc 1 15 3 view .LVU23
// upper.c:11: 		if ((cur >= 'a') && (cur <='z')) 
	.loc 1 11 20 is_stmt 0 view .LVU24
	sub	w3, w2, #97	// tmp98, cur,
// upper.c:13: 			cur = cur - ('a'-'A');
	.loc 1 13 8 view .LVU25
	sub	w5, w2, #32	// tmp100, cur,
// upper.c:11: 		if ((cur >= 'a') && (cur <='z')) 
	.loc 1 11 6 view .LVU26
	and	w3, w3, 255	// tmp99, tmp98
	cmp	w3, 25	// tmp99,
	bls	.L6		//,
.LVL8:
.L3:
// upper.c:15: 		*outstr++ = cur;
	.loc 1 15 13 view .LVU27
	strb	w2, [x4, -1]	// cur, MEM[base: _28, offset: -1B]
	.loc 1 16 3 is_stmt 1 view .LVU28
.LVL9:
	.loc 1 17 10 view .LVU29
// upper.c:17: 	} while (cur != '\0');
	.loc 1 17 2 is_stmt 0 view .LVU30
	cbnz	w2, .L2	// cur,
	.loc 1 18 2 is_stmt 1 view .LVU31
// upper.c:19: }
	.loc 1 19 1 is_stmt 0 view .LVU32
	sub	w0, w4, w1	//, outstr, outstr
.LVL10:
	.loc 1 19 1 view .LVU33
	ret	
	.cfi_endproc
.LFE11:
	.size	mytoupper, .-mytoupper
	.section	.rodata.str1.8,"aMS",@progbits,1
	.align	3
.LC0:
	.string	"Input: %s\nOutput: %s\n"
	.section	.text.startup,"ax",@progbits
	.align	2
	.p2align 3,,7
	.global	main
	.type	main, %function
main:
.LFB12:
	.loc 1 27 1 is_stmt 1 view -0
	.cfi_startproc
	.loc 1 28 2 view .LVU35
// upper.c:27: {
	.loc 1 27 1 is_stmt 0 view .LVU36
	stp	x29, x30, [sp, -16]!	//,,,
	.cfi_def_cfa_offset 16
	.cfi_offset 29, -16
	.cfi_offset 30, -8
// upper.c:28: 	mytoupper(tstStr, outStr);
	.loc 1 28 2 view .LVU37
	adrp	x0, .LANCHOR0	// tmp99,
	adrp	x2, :got:outStr	// tmp110,
// upper.c:27: {
	.loc 1 27 1 view .LVU38
	mov	x29, sp	//,
// upper.c:28: 	mytoupper(tstStr, outStr);
	.loc 1 28 2 view .LVU39
	ldr	x1, [x0, #:lo12:.LANCHOR0]	// tstStr.1_1, tstStr
.LVL11:
.LBB4:
.LBI4:
	.loc 1 3 5 is_stmt 1 view .LVU40
.LBB5:
	.loc 1 5 2 view .LVU41
	.loc 1 6 2 view .LVU42
	.loc 1 6 2 is_stmt 0 view .LVU43
.LBE5:
.LBE4:
// upper.c:28: 	mytoupper(tstStr, outStr);
	.loc 1 28 2 view .LVU44
	ldr	x4, [x2, #:got_lo12:outStr]	// outstr, tmp110,
	mov	x5, x1	// instr, tstStr.1_1
.LVL12:
.L8:
.LBB7:
.LBB6:
	.loc 1 8 2 is_stmt 1 view .LVU45
	.loc 1 10 3 view .LVU46
	.loc 1 13 4 view .LVU47
// upper.c:10: 		cur = *instr;
	.loc 1 10 7 is_stmt 0 view .LVU48
	ldrb	w0, [x5], 1	// cur, MEM[base: instr_4, offset: 0B]
.LVL13:
	.loc 1 11 3 is_stmt 1 view .LVU49
	.loc 1 15 3 view .LVU50
	.loc 1 15 3 view .LVU51
	add	x4, x4, 1	// outstr, outstr,
.LVL14:
// upper.c:11: 		if ((cur >= 'a') && (cur <='z')) 
	.loc 1 11 20 is_stmt 0 view .LVU52
	sub	w3, w0, #97	// tmp100, cur,
// upper.c:13: 			cur = cur - ('a'-'A');
	.loc 1 13 8 view .LVU53
	sub	w6, w0, #32	// tmp102, cur,
// upper.c:11: 		if ((cur >= 'a') && (cur <='z')) 
	.loc 1 11 6 view .LVU54
	and	w3, w3, 255	// tmp101, tmp100
	cmp	w3, 25	// tmp101,
	bhi	.L9		//,
.LVL15:
.L12:
// upper.c:15: 		*outstr++ = cur;
	.loc 1 15 13 view .LVU55
	strb	w6, [x4, -1]	// tmp102, MEM[base: _14, offset: -1B]
	.loc 1 16 3 is_stmt 1 view .LVU56
.LVL16:
	.loc 1 17 10 view .LVU57
	.loc 1 8 2 view .LVU58
	.loc 1 10 3 view .LVU59
	.loc 1 13 4 view .LVU60
	add	x4, x4, 1	// outstr, outstr,
.LVL17:
// upper.c:10: 		cur = *instr;
	.loc 1 10 7 is_stmt 0 view .LVU61
	ldrb	w0, [x5], 1	// cur, MEM[base: instr_4, offset: 0B]
.LVL18:
	.loc 1 11 3 is_stmt 1 view .LVU62
	.loc 1 15 3 view .LVU63
	.loc 1 15 3 view .LVU64
// upper.c:11: 		if ((cur >= 'a') && (cur <='z')) 
	.loc 1 11 20 is_stmt 0 view .LVU65
	sub	w3, w0, #97	// tmp100, cur,
// upper.c:13: 			cur = cur - ('a'-'A');
	.loc 1 13 8 view .LVU66
	sub	w6, w0, #32	// tmp102, cur,
// upper.c:11: 		if ((cur >= 'a') && (cur <='z')) 
	.loc 1 11 6 view .LVU67
	and	w3, w3, 255	// tmp101, tmp100
	cmp	w3, 25	// tmp101,
	bls	.L12		//,
.LVL19:
.L9:
// upper.c:15: 		*outstr++ = cur;
	.loc 1 15 13 view .LVU68
	strb	w0, [x4, -1]	// cur, MEM[base: _14, offset: -1B]
	.loc 1 16 3 is_stmt 1 view .LVU69
.LVL20:
	.loc 1 17 10 view .LVU70
// upper.c:17: 	} while (cur != '\0');
	.loc 1 17 2 is_stmt 0 view .LVU71
	cbnz	w0, .L8	// cur,
	.loc 1 18 2 is_stmt 1 view .LVU72
.LVL21:
	.loc 1 18 2 is_stmt 0 view .LVU73
.LBE6:
.LBE7:
	.loc 1 29 2 is_stmt 1 view .LVU74
	ldr	x2, [x2, #:got_lo12:outStr]	//, tmp110,
	adrp	x0, .LC0	// tmp108,
	add	x0, x0, :lo12:.LC0	//, tmp108,
	bl	printf		//
.LVL22:
	.loc 1 31 2 view .LVU75
// upper.c:32: }
	.loc 1 32 1 is_stmt 0 view .LVU76
	mov	w0, 0	//,
	ldp	x29, x30, [sp], 16	//,,,
	.cfi_restore 30
	.cfi_restore 29
	.cfi_def_cfa_offset 0
	ret	
	.cfi_endproc
.LFE12:
	.size	main, .-main
	.comm	outStr,250,8
	.global	tstStr
	.section	.rodata.str1.8
	.align	3
.LC1:
	.string	"This is a test!"
	.section	.data.rel.local,"aw"
	.align	3
	.set	.LANCHOR0,. + 0
	.type	tstStr, %object
	.size	tstStr, 8
tstStr:
	.xword	.LC1
	.text
.Letext0:
	.file 2 "/usr/lib/gcc/aarch64-linux-gnu/9/include/stddef.h"
	.file 3 "/usr/include/aarch64-linux-gnu/bits/types.h"
	.file 4 "/usr/include/aarch64-linux-gnu/bits/types/struct_FILE.h"
	.file 5 "/usr/include/aarch64-linux-gnu/bits/types/FILE.h"
	.file 6 "/usr/include/stdio.h"
	.file 7 "/usr/include/aarch64-linux-gnu/bits/sys_errlist.h"
	.section	.note.GNU-stack,"",@progbits
